target datalayout = "e-m:e-p270:32:32-p271:32:32-p272:64:64-i64:64-i128:128-f80:128-n8:16:32:64-S128"
target triple = "x86_64-unknown-linux-gnu"

; Function Attrs: nounwind sspstrong uwtable
define internal i64 @pci_vga_bochs_read(ptr noundef %ptr, i64 noundef %addr, i32 noundef %size) #0 {
entry:
  %ptr.addr = alloca ptr, align 8
  %addr.addr = alloca i64, align 8
  %size.addr = alloca i32, align 4
  %s = alloca ptr, align 8
  %index = alloca i32, align 4
  store ptr %ptr, ptr %ptr.addr, align 8
  store i64 %addr, ptr %addr.addr, align 8
  store i32 %size, ptr %size.addr, align 4
  %0 = load ptr, ptr %ptr.addr, align 8
  store ptr %0, ptr %s, align 8
  %1 = load i64, ptr %addr.addr, align 8
  %shr = lshr i64 %1, 1
  %conv = trunc i64 %shr to i32
  store i32 %conv, ptr %index, align 4
  %2 = load ptr, ptr %s, align 8
  %3 = load i32, ptr %index, align 4
  call void @vbe_ioport_write_index(ptr noundef %2, i32 noundef 0, i32 noundef %3)
  %4 = load ptr, ptr %s, align 8
  %call = call i32 @vbe_ioport_read_data(ptr noundef %4, i32 noundef 0)
  %conv1 = zext i32 %call to i64
  ret i64 %conv1
}