; Function Attrs: nounwind sspstrong uwtable
define internal range(i64 0, 4294967296) i64 @pci_vga_bochs_read(ptr noundef %ptr, i64 noundef %addr, i32 %size) #0 {
entry:
  %shr = lshr i64 %addr, 1
  %conv = trunc i64 %shr to i32
  tail call void @vbe_ioport_write_index(ptr noundef %ptr, i32 noundef 0, i32 noundef %conv) #4
  %call = tail call i32 @vbe_ioport_read_data(ptr noundef %ptr, i32 noundef 0) #4
  %conv1 = zext i32 %call to i64
  ret i64 %conv1
}